target datalayout = "e-m:e-p270:32:32-p271:32:32-p272:64:64-i64:64-i128:128-f80:128-n8:16:32:64-S128"
target triple = "x86_64-pc-linux-gnu"

%class.symbol = type { ptr }
%class.app = type { %class.expr, ptr, i32, %struct.app_flags, [0 x ptr] }
%class.expr = type { %class.ast }
%class.ast = type { i32, i32, i32, i32 }
%struct.app_flags = type <{ i16, i8, i8 }>
%class.decl = type { %class.ast, %class.symbol, ptr }
%class.decl_info = type <{ i32, i32, %class.vector.34, i8, [7 x i8] }>
%class.vector.34 = type { ptr }

@.str = private unnamed_addr constant [116 x i8] c"generated/home/dtcxzyw/WorkSpace/Projects/compilers/llvm-opt-benchmark/bench/z3/z3/src/ast/sls/sls_basic_plugin.cpp\00", align 1
@.str.2 = private unnamed_addr constant [21 x i8] c"NOT IMPLEMENTED YET!\00", align 1

; Function Attrs: mustprogress nounwind uwtable
define linkonce_odr hidden noundef i32 @_ZNK9decl_info13get_decl_kindEv(ptr noundef nonnull align 8 dereferenceable(17) %0) #5 comdat align 2 {
  %2 = alloca ptr, align 8
  store ptr %0, ptr %2, align 8, !tbaa !157
  %3 = load ptr, ptr %2, align 8
  %4 = getelementptr inbounds nuw %class.decl_info, ptr %3, i32 0, i32 1
  %5 = load i32, ptr %4, align 4, !tbaa !162
  ret i32 %5
}

; Function Attrs: mustprogress uwtable
define linkonce_odr hidden noundef i32 @_ZNK4decl13get_decl_kindEv(ptr noundef nonnull align 8 dereferenceable(32) %0) #4 comdat align 2 {
  %2 = alloca ptr, align 8
  store ptr %0, ptr %2, align 8, !tbaa !152
  %3 = load ptr, ptr %2, align 8
  %4 = getelementptr inbounds nuw %class.decl, ptr %3, i32 0, i32 2
  %5 = load ptr, ptr %4, align 8, !tbaa !154
  %6 = icmp eq ptr %5, null
  br i1 %6, label %7, label %8

7:                                                ; preds = %1
  br label %12

8:                                                ; preds = %1
  %9 = getelementptr inbounds nuw %class.decl, ptr %3, i32 0, i32 2
  %10 = load ptr, ptr %9, align 8, !tbaa !154
  %11 = call noundef i32 @_ZNK9decl_info13get_decl_kindEv(ptr noundef nonnull align 8 dereferenceable(17) %10)
  br label %12

12:                                               ; preds = %8, %7
  %13 = phi i32 [ -1, %7 ], [ %11, %8 ]
  ret i32 %13
}

; Function Attrs: mustprogress nounwind uwtable
define linkonce_odr hidden noundef ptr @_ZNK3app8get_declEv(ptr noundef nonnull align 8 dereferenceable(32) %0) #5 comdat align 2 {
  %2 = alloca ptr, align 8
  store ptr %0, ptr %2, align 8, !tbaa !94
  %3 = load ptr, ptr %2, align 8
  %4 = getelementptr inbounds nuw %class.app, ptr %3, i32 0, i32 1
  %5 = load ptr, ptr %4, align 8, !tbaa !151
  ret ptr %5
}

; Function Attrs: mustprogress uwtable
define hidden noundef zeroext i1 @_ZN3sls12basic_plugin19try_repair_distinctEP3appj(ptr noundef nonnull align 8 dereferenceable(56) %0, ptr noundef %1, i32 noundef %2) #4 align 2 {
  %4 = alloca ptr, align 8
  %5 = alloca ptr, align 8
  %6 = alloca i32, align 4
  store ptr %0, ptr %4, align 8, !tbaa !3
  store ptr %1, ptr %5, align 8, !tbaa !94
  store i32 %2, ptr %6, align 4, !tbaa !107
  call void @_Z26notify_assertion_violationPKciS0_(ptr noundef @.str, i32 noundef 213, ptr noundef @.str.2)
  call void @_Z18invoke_exit_actionj(i32 noundef 107)
  ret i1 false
}

; Function Attrs: mustprogress uwtable
define linkonce_odr hidden noundef i32 @_ZNK3app13get_decl_kindEv(ptr noundef nonnull align 8 dereferenceable(32) %0) #4 comdat align 2 {
  %2 = alloca ptr, align 8
  store ptr %0, ptr %2, align 8, !tbaa !94
  %3 = load ptr, ptr %2, align 8
  %4 = call noundef ptr @_ZNK3app8get_declEv(ptr noundef nonnull align 8 dereferenceable(32) %3)
  %5 = call noundef i32 @_ZNK4decl13get_decl_kindEv(ptr noundef nonnull align 8 dereferenceable(32) %4)
  ret i32 %5
}

; Function Attrs: mustprogress uwtable
define hidden noundef zeroext i1 @_ZN3sls12basic_plugin10try_repairEP3appj(ptr noundef nonnull align 8 dereferenceable(56) %0, ptr noundef %1, i32 noundef %2) #4 align 2 {
  %4 = alloca i1, align 1
  %5 = alloca ptr, align 8
  %6 = alloca ptr, align 8
  %7 = alloca i32, align 4
  store ptr %0, ptr %5, align 8, !tbaa !3
  store ptr %1, ptr %6, align 8, !tbaa !94
  store i32 %2, ptr %7, align 4, !tbaa !107
  %8 = load ptr, ptr %5, align 8
  %9 = load ptr, ptr %6, align 8, !tbaa !94
  %10 = call noundef i32 @_ZNK3app13get_decl_kindEv(ptr noundef nonnull align 8 dereferenceable(32) %9)
  switch i32 %10, label %23 [
    i32 7, label %11
    i32 4, label %15
    i32 3, label %19
  ]

11:                                               ; preds = %3
  %12 = load ptr, ptr %6, align 8, !tbaa !94
  %13 = load i32, ptr %7, align 4, !tbaa !107
  %14 = call noundef zeroext i1 @_ZN3sls12basic_plugin14try_repair_xorEP3appj(ptr noundef nonnull align 8 dereferenceable(56) %8, ptr noundef %12, i32 noundef %13)
  store i1 %14, ptr %4, align 1
  br label %24

15:                                               ; preds = %3
  %16 = load ptr, ptr %6, align 8, !tbaa !94
  %17 = load i32, ptr %7, align 4, !tbaa !107
  %18 = call noundef zeroext i1 @_ZN3sls12basic_plugin14try_repair_iteEP3appj(ptr noundef nonnull align 8 dereferenceable(56) %8, ptr noundef %16, i32 noundef %17)
  store i1 %18, ptr %4, align 1
  br label %24

19:                                               ; preds = %3
  %20 = load ptr, ptr %6, align 8, !tbaa !94
  %21 = load i32, ptr %7, align 4, !tbaa !107
  %22 = call noundef zeroext i1 @_ZN3sls12basic_plugin19try_repair_distinctEP3appj(ptr noundef nonnull align 8 dereferenceable(56) %8, ptr noundef %20, i32 noundef %21)
  store i1 %22, ptr %4, align 1
  br label %24

23:                                               ; preds = %3
  store i1 true, ptr %4, align 1
  br label %24

24:                                               ; preds = %23, %19, %15, %11
  %25 = load i1, ptr %4, align 1
  ret i1 %25
}