; Function Attrs: mustprogress uwtable
define hidden noundef zeroext i1 @_ZN3sls12basic_plugin10try_repairEP3appj(ptr noundef nonnull readonly align 8 captures(none) dereferenceable(56) %0, ptr noundef %1, i32 noundef %2) local_unnamed_addr #3 align 2 {
  %4 = getelementptr inbounds nuw i8, ptr %1, i64 16
  %5 = load ptr, ptr %4, align 8, !tbaa !20
  %6 = getelementptr inbounds nuw i8, ptr %5, i64 24
  %7 = load ptr, ptr %6, align 8, !tbaa !25
  %8 = icmp eq ptr %7, null
  br i1 %8, label %_ZNK3app13get_decl_kindEv.exit.thread, label %_ZNK3app13get_decl_kindEv.exit

_ZNK3app13get_decl_kindEv.exit:                   ; preds = %3
  %9 = getelementptr inbounds nuw i8, ptr %7, i64 4
  %10 = load i32, ptr %9, align 4, !tbaa !134
  switch i32 %10, label %_ZNK3app13get_decl_kindEv.exit.thread [
    i32 7, label %11
    i32 4, label %13
    i32 3, label %15
  ]

11:                                               ; preds = %_ZNK3app13get_decl_kindEv.exit
  %12 = tail call noundef zeroext i1 @_ZN3sls12basic_plugin14try_repair_xorEP3appj(ptr noundef nonnull align 8 dereferenceable(56) %0, ptr noundef nonnull %1, i32 noundef %2)
  br label %_ZNK3app13get_decl_kindEv.exit.thread

13:                                               ; preds = %_ZNK3app13get_decl_kindEv.exit
  %14 = tail call noundef zeroext i1 @_ZN3sls12basic_plugin14try_repair_iteEP3appj(ptr noundef nonnull align 8 dereferenceable(56) %0, ptr noundef nonnull %1, i32 noundef %2)
  br label %_ZNK3app13get_decl_kindEv.exit.thread

15:                                               ; preds = %_ZNK3app13get_decl_kindEv.exit
  tail call void @_Z26notify_assertion_violationPKciS0_(ptr noundef nonnull @.str, i32 noundef 213, ptr noundef nonnull @.str.2)
  tail call void @_Z18invoke_exit_actionj(i32 noundef 107)
  br label %_ZNK3app13get_decl_kindEv.exit.thread

_ZNK3app13get_decl_kindEv.exit.thread:            ; preds = %3, %_ZNK3app13get_decl_kindEv.exit, %15, %13, %11
  %.0 = phi i1 [ false, %15 ], [ %14, %13 ], [ true, %11 ], [ true, %_ZNK3app13get_decl_kindEv.exit ], [ true, %3 ]
  ret i1 %.0
}